target datalayout = "e-m:e-p270:32:32-p271:32:32-p272:64:64-i64:64-i128:128-f80:128-n8:16:32:64-S128"
target triple = "x86_64-pc-linux-gnu"

%struct.lambda_components_t = type { ptr, i32, i32 }
%"class.std::filesystem::__cxx11::path" = type { %"class.std::__cxx11::basic_string", %"struct.std::filesystem::__cxx11::path::_List" }
%"class.std::__cxx11::basic_string" = type { %"struct.std::__cxx11::basic_string<char>::_Alloc_hider", i64, %union.anon.3 }
%"struct.std::__cxx11::basic_string<char>::_Alloc_hider" = type { ptr }
%union.anon.3 = type { i64, [8 x i8] }
%"struct.std::filesystem::__cxx11::path::_List" = type { %"class.std::unique_ptr" }
%"class.std::unique_ptr" = type { %"struct.std::__uniq_ptr_data" }
%"struct.std::__uniq_ptr_data" = type { %"class.std::__uniq_ptr_impl" }
%"class.std::__uniq_ptr_impl" = type { %"class.std::tuple" }
%"class.std::tuple" = type { %"struct.std::_Tuple_impl" }
%"struct.std::_Tuple_impl" = type { %"struct.std::_Head_base.5" }
%"struct.std::_Head_base.5" = type { ptr }
%struct.lambda_vec_t = type { ptr, i32, ptr, i32 }

@.str.116 = private unnamed_addr constant [124 x i8] c"generated/home/dtcxzyw/WorkSpace/Projects/compilers/llvm-opt-benchmark/bench/gromacs/gromacs/src/gromacs/gmxana/gmx_bar.cpp\00", align 1
@.str.280 = private unnamed_addr constant [80 x i8] c"Trying to calculate the difference between derivatives instead of lambda points\00", align 1
@.str.281 = private unnamed_addr constant [68 x i8] c"Trying to calculate the difference lambdas with differing basis set\00", align 1

; Function Attrs: mustprogress uwtable
define internal noundef double @_ZL19lambda_vec_abs_diffPK12lambda_vec_tS1_(ptr noundef %0, ptr noundef %1) #0 personality ptr @__gxx_personality_v0 {
  %3 = alloca ptr, align 8
  %4 = alloca ptr, align 8
  %5 = alloca i32, align 4
  %6 = alloca double, align 8
  %7 = alloca %"class.std::filesystem::__cxx11::path", align 8
  %8 = alloca ptr, align 8
  %9 = alloca i32, align 4
  %10 = alloca %"class.std::filesystem::__cxx11::path", align 8
  %11 = alloca double, align 8
  store ptr %0, ptr %3, align 8, !tbaa !155
  store ptr %1, ptr %4, align 8, !tbaa !155
  call void @llvm.lifetime.start.p0(i64 4, ptr %5) #17
  call void @llvm.lifetime.start.p0(i64 8, ptr %6) #17
  store double 0.000000e+00, ptr %6, align 8, !tbaa !32
  %12 = load ptr, ptr %3, align 8, !tbaa !155
  %13 = getelementptr inbounds nuw %struct.lambda_vec_t, ptr %12, i32 0, i32 1
  %14 = load i32, ptr %13, align 8, !tbaa !181
  %15 = icmp sgt i32 %14, 0
  br i1 %15, label %21, label %16

16:                                               ; preds = %2
  %17 = load ptr, ptr %4, align 8, !tbaa !155
  %18 = getelementptr inbounds nuw %struct.lambda_vec_t, ptr %17, i32 0, i32 1
  %19 = load i32, ptr %18, align 8, !tbaa !181
  %20 = icmp sgt i32 %19, 0
  br i1 %20, label %21, label %27

21:                                               ; preds = %16, %2
  call void @llvm.lifetime.start.p0(i64 40, ptr %7) #17
  call void @_ZNSt10filesystem7__cxx114pathC2IA124_cS1_EERKT_NS1_6formatE(ptr noundef nonnull align 8 dereferenceable(40) %7, ptr noundef nonnull align 1 dereferenceable(124) @.str.116, i8 noundef zeroext 2)
  invoke void (i32, ptr, i32, ptr, ...) @_Z9gmx_fataliRKNSt10filesystem7__cxx114pathEiPKcz(i32 noundef 0, ptr noundef nonnull align 8 dereferenceable(40) %7, i32 noundef 419, ptr noundef @.str.280) #18
          to label %22 unwind label %23

22:                                               ; preds = %21
  unreachable

23:                                               ; preds = %21
  %24 = landingpad { ptr, i32 }
          cleanup
  %25 = extractvalue { ptr, i32 } %24, 0
  store ptr %25, ptr %8, align 8
  %26 = extractvalue { ptr, i32 } %24, 1
  store i32 %26, ptr %9, align 4
  call void @_ZNSt10filesystem7__cxx114pathD2Ev(ptr noundef nonnull align 8 dereferenceable(40) %7) #17
  call void @llvm.lifetime.end.p0(i64 40, ptr %7) #17
  br label %76

27:                                               ; preds = %16
  %28 = load ptr, ptr %3, align 8, !tbaa !155
  %29 = getelementptr inbounds nuw %struct.lambda_vec_t, ptr %28, i32 0, i32 2
  %30 = load ptr, ptr %29, align 8, !tbaa !129
  %31 = load ptr, ptr %4, align 8, !tbaa !155
  %32 = getelementptr inbounds nuw %struct.lambda_vec_t, ptr %31, i32 0, i32 2
  %33 = load ptr, ptr %32, align 8, !tbaa !129
  %34 = icmp ne ptr %30, %33
  br i1 %34, label %35, label %41

35:                                               ; preds = %27
  call void @llvm.lifetime.start.p0(i64 40, ptr %10) #17
  call void @_ZNSt10filesystem7__cxx114pathC2IA124_cS1_EERKT_NS1_6formatE(ptr noundef nonnull align 8 dereferenceable(40) %10, ptr noundef nonnull align 1 dereferenceable(124) @.str.116, i8 noundef zeroext 2)
  invoke void (i32, ptr, i32, ptr, ...) @_Z9gmx_fataliRKNSt10filesystem7__cxx114pathEiPKcz(i32 noundef 0, ptr noundef nonnull align 8 dereferenceable(40) %10, i32 noundef 424, ptr noundef @.str.281) #18
          to label %36 unwind label %37

36:                                               ; preds = %35
  unreachable

37:                                               ; preds = %35
  %38 = landingpad { ptr, i32 }
          cleanup
  %39 = extractvalue { ptr, i32 } %38, 0
  store ptr %39, ptr %8, align 8
  %40 = extractvalue { ptr, i32 } %38, 1
  store i32 %40, ptr %9, align 4
  call void @_ZNSt10filesystem7__cxx114pathD2Ev(ptr noundef nonnull align 8 dereferenceable(40) %10) #17
  call void @llvm.lifetime.end.p0(i64 40, ptr %10) #17
  br label %76

41:                                               ; preds = %27
  store i32 0, ptr %5, align 4, !tbaa !4
  br label %42

42:                                               ; preds = %70, %41
  %43 = load i32, ptr %5, align 4, !tbaa !4
  %44 = load ptr, ptr %3, align 8, !tbaa !155
  %45 = getelementptr inbounds nuw %struct.lambda_vec_t, ptr %44, i32 0, i32 2
  %46 = load ptr, ptr %45, align 8, !tbaa !129
  %47 = getelementptr inbounds nuw %struct.lambda_components_t, ptr %46, i32 0, i32 1
  %48 = load i32, ptr %47, align 8, !tbaa !226
  %49 = icmp slt i32 %43, %48
  br i1 %49, label %50, label %73

50:                                               ; preds = %42
  call void @llvm.lifetime.start.p0(i64 8, ptr %11) #17
  %51 = load ptr, ptr %3, align 8, !tbaa !155
  %52 = getelementptr inbounds nuw %struct.lambda_vec_t, ptr %51, i32 0, i32 0
  %53 = load ptr, ptr %52, align 8, !tbaa !130
  %54 = load i32, ptr %5, align 4, !tbaa !4
  %55 = sext i32 %54 to i64
  %56 = getelementptr inbounds double, ptr %53, i64 %55
  %57 = load double, ptr %56, align 8, !tbaa !32
  %58 = load ptr, ptr %4, align 8, !tbaa !155
  %59 = getelementptr inbounds nuw %struct.lambda_vec_t, ptr %58, i32 0, i32 0
  %60 = load ptr, ptr %59, align 8, !tbaa !130
  %61 = load i32, ptr %5, align 4, !tbaa !4
  %62 = sext i32 %61 to i64
  %63 = getelementptr inbounds double, ptr %60, i64 %62
  %64 = load double, ptr %63, align 8, !tbaa !32
  %65 = fsub double %57, %64
  store double %65, ptr %11, align 8, !tbaa !32
  %66 = load double, ptr %11, align 8, !tbaa !32
  %67 = load double, ptr %11, align 8, !tbaa !32
  %68 = load double, ptr %6, align 8, !tbaa !32
  %69 = call double @llvm.fmuladd.f64(double %66, double %67, double %68)
  store double %69, ptr %6, align 8, !tbaa !32
  call void @llvm.lifetime.end.p0(i64 8, ptr %11) #17
  br label %70

70:                                               ; preds = %50
  %71 = load i32, ptr %5, align 4, !tbaa !4
  %72 = add nsw i32 %71, 1
  store i32 %72, ptr %5, align 4, !tbaa !4
  br label %42, !llvm.loop !386

73:                                               ; preds = %42
  %74 = load double, ptr %6, align 8, !tbaa !32
  %75 = call double @sqrt(double noundef %74) #17, !tbaa !4
  call void @llvm.lifetime.end.p0(i64 8, ptr %6) #17
  call void @llvm.lifetime.end.p0(i64 4, ptr %5) #17
  ret double %75

76:                                               ; preds = %37, %23
  call void @llvm.lifetime.end.p0(i64 8, ptr %6) #17
  call void @llvm.lifetime.end.p0(i64 4, ptr %5) #17
  br label %77

77:                                               ; preds = %76
  %78 = load ptr, ptr %8, align 8
  %79 = load i32, ptr %9, align 4
  %80 = insertvalue { ptr, i32 } poison, ptr %78, 0
  %81 = insertvalue { ptr, i32 } %80, i32 %79, 1
  resume { ptr, i32 } %81
}