; Function Attrs: mustprogress uwtable
define internal fastcc noundef double @_ZL19lambda_vec_abs_diffPK12lambda_vec_tS1_(ptr noundef readonly captures(none) %0, ptr noundef readonly captures(none) %1) unnamed_addr #0 personality ptr @__gxx_personality_v0 {
  %3 = alloca %"class.std::filesystem::__cxx11::path", align 8
  %4 = alloca %"class.std::filesystem::__cxx11::path", align 8
  %5 = getelementptr inbounds nuw i8, ptr %0, i64 8
  %6 = load i32, ptr %5, align 8, !tbaa !75
  %7 = icmp sgt i32 %6, 0
  br i1 %7, label %12, label %8

8:                                                ; preds = %2
  %9 = getelementptr inbounds nuw i8, ptr %1, i64 8
  %10 = load i32, ptr %9, align 8, !tbaa !75
  %11 = icmp sgt i32 %10, 0
  br i1 %11, label %12, label %16

12:                                               ; preds = %8, %2
  call void @llvm.lifetime.start.p0(i64 40, ptr nonnull %3) #24
  call void @_ZNSt10filesystem7__cxx114pathC2IA124_cS1_EERKT_NS1_6formatE(ptr noundef nonnull align 8 dereferenceable(40) %3, ptr noundef nonnull align 1 dereferenceable(124) @.str.116, i8 noundef zeroext 2)
  invoke void (i32, ptr, i32, ptr, ...) @_Z9gmx_fataliRKNSt10filesystem7__cxx114pathEiPKcz(i32 noundef 0, ptr noundef nonnull align 8 dereferenceable(40) %3, i32 noundef 419, ptr noundef nonnull @.str.280) #25
          to label %13 unwind label %14

13:                                               ; preds = %12
  unreachable

14:                                               ; preds = %12
  %15 = landingpad { ptr, i32 }
          cleanup
  call void @_ZNSt10filesystem7__cxx114pathD2Ev(ptr noundef nonnull align 8 dereferenceable(40) %3) #24
  call void @llvm.lifetime.end.p0(i64 40, ptr nonnull %3) #24
  br label %38

16:                                               ; preds = %8
  %17 = getelementptr inbounds nuw i8, ptr %0, i64 16
  %18 = load ptr, ptr %17, align 8, !tbaa !76
  %19 = getelementptr inbounds nuw i8, ptr %1, i64 16
  %20 = load ptr, ptr %19, align 8, !tbaa !76
  %.not = icmp eq ptr %18, %20
  br i1 %.not, label %.preheader, label %26

.preheader:                                       ; preds = %16
  %21 = getelementptr inbounds nuw i8, ptr %18, i64 8
  %22 = load i32, ptr %21, align 8, !tbaa !44
  %23 = icmp sgt i32 %22, 0
  br i1 %23, label %.lr.ph, label %._crit_edge

.lr.ph:                                           ; preds = %.preheader
  %24 = load ptr, ptr %0, align 8, !tbaa !85
  %25 = load ptr, ptr %1, align 8, !tbaa !85
  %wide.trip.count = zext nneg i32 %22 to i64
  br label %30

26:                                               ; preds = %16
  call void @llvm.lifetime.start.p0(i64 40, ptr nonnull %4) #24
  call void @_ZNSt10filesystem7__cxx114pathC2IA124_cS1_EERKT_NS1_6formatE(ptr noundef nonnull align 8 dereferenceable(40) %4, ptr noundef nonnull align 1 dereferenceable(124) @.str.116, i8 noundef zeroext 2)
  invoke void (i32, ptr, i32, ptr, ...) @_Z9gmx_fataliRKNSt10filesystem7__cxx114pathEiPKcz(i32 noundef 0, ptr noundef nonnull align 8 dereferenceable(40) %4, i32 noundef 424, ptr noundef nonnull @.str.281) #25
          to label %27 unwind label %28

27:                                               ; preds = %26
  unreachable

28:                                               ; preds = %26
  %29 = landingpad { ptr, i32 }
          cleanup
  call void @_ZNSt10filesystem7__cxx114pathD2Ev(ptr noundef nonnull align 8 dereferenceable(40) %4) #24
  call void @llvm.lifetime.end.p0(i64 40, ptr nonnull %4) #24
  br label %38

30:                                               ; preds = %.lr.ph, %30
  %indvars.iv = phi i64 [ 0, %.lr.ph ], [ %indvars.iv.next, %30 ]
  %.01820 = phi double [ 0.000000e+00, %.lr.ph ], [ %36, %30 ]
  %31 = getelementptr inbounds nuw double, ptr %24, i64 %indvars.iv
  %32 = load double, ptr %31, align 8, !tbaa !80
  %33 = getelementptr inbounds nuw double, ptr %25, i64 %indvars.iv
  %34 = load double, ptr %33, align 8, !tbaa !80
  %35 = fsub double %32, %34
  %36 = tail call double @llvm.fmuladd.f64(double %35, double %35, double %.01820)
  %indvars.iv.next = add nuw nsw i64 %indvars.iv, 1
  %exitcond.not = icmp eq i64 %indvars.iv.next, %wide.trip.count
  br i1 %exitcond.not, label %._crit_edge, label %30, !llvm.loop !242

._crit_edge:                                      ; preds = %30, %.preheader
  %.018.lcssa = phi double [ 0.000000e+00, %.preheader ], [ %36, %30 ]
  %37 = tail call double @sqrt(double noundef %.018.lcssa) #24, !tbaa !4
  ret double %37

38:                                               ; preds = %28, %14
  %.pn = phi { ptr, i32 } [ %15, %14 ], [ %29, %28 ]
  resume { ptr, i32 } %.pn
}